; Function Attrs: mustprogress uwtable
define void @_ZNK2cv7MatExpr3rowEi(ptr dead_on_unwind noalias writable sret(%"class.cv::MatExpr") align 8 %0, ptr noundef nonnull align 8 dereferenceable(352) %1, i32 noundef %2) local_unnamed_addr #8 align 2 personality ptr @__gxx_personality_v0 {
  %4 = alloca %"class.cv::Range", align 4
  %5 = alloca %"class.cv::Range", align 8
  store ptr null, ptr %0, align 8
  %6 = getelementptr inbounds i8, ptr %0, i64 8
  store i32 0, ptr %6, align 8
  %7 = getelementptr inbounds i8, ptr %0, i64 16
  tail call void @_ZN2cv3MatC1Ev(ptr noundef nonnull align 8 dereferenceable(96) %7) #21
  %8 = getelementptr inbounds i8, ptr %0, i64 112
  tail call void @_ZN2cv3MatC1Ev(ptr noundef nonnull align 8 dereferenceable(96) %8) #21
  %9 = getelementptr inbounds i8, ptr %0, i64 208
  tail call void @_ZN2cv3MatC1Ev(ptr noundef nonnull align 8 dereferenceable(96) %9) #21
  %10 = getelementptr inbounds i8, ptr %0, i64 304
  tail call void @llvm.memset.p0.i64(ptr noundef nonnull align 8 dereferenceable(48) %10, i8 0, i64 48, i1 false)
  %11 = load ptr, ptr %1, align 8
  %12 = add nsw i32 %2, 1
  store i32 %2, ptr %4, align 4
  %13 = getelementptr inbounds i8, ptr %4, i64 4
  store i32 %12, ptr %13, align 4
  store i64 9223372034707292160, ptr %5, align 8
  %14 = load ptr, ptr %11, align 8
  %15 = getelementptr inbounds i8, ptr %14, i64 32
  %16 = load ptr, ptr %15, align 8
  invoke void %16(ptr noundef nonnull align 8 dereferenceable(8) %11, ptr noundef nonnull align 8 dereferenceable(352) %1, ptr noundef nonnull align 4 dereferenceable(8) %4, ptr noundef nonnull align 4 dereferenceable(8) %5, ptr noundef nonnull align 8 dereferenceable(352) %0)
          to label %19 unwind label %17

17:                                               ; preds = %3
  %18 = landingpad { ptr, i32 }
          cleanup
  call void @_ZN2cv7MatExprD2Ev(ptr noundef nonnull align 8 dereferenceable(352) %0) #21
  resume { ptr, i32 } %18

19:                                               ; preds = %3
  ret void
}